; Function Attrs: mustprogress uwtable
define void @_ZN5dtm_t6resumeEi(ptr nocapture noundef nonnull align 8 dereferenceable(928) %0, i32 noundef %1) local_unnamed_addr #0 align 2 {
  %3 = shl nsw i32 %1, 26
  %4 = and i32 %3, 67108864
  %5 = or disjoint i32 %4, 1073741825
  %6 = getelementptr inbounds i8, ptr %0, i64 872
  store i64 8589934608, ptr %6, align 8
  %.sroa.22.0..sroa_idx.i.i = getelementptr inbounds i8, ptr %0, i64 880
  store i32 %5, ptr %.sroa.22.0..sroa_idx.i.i, align 8
  %7 = getelementptr inbounds i8, ptr %0, i64 728
  %8 = load ptr, ptr %7, align 8
  tail call void @_ZN9context_t9switch_toEv(ptr noundef nonnull align 8 dereferenceable(32) %8)
  %9 = getelementptr inbounds i8, ptr %0, i64 888
  br label %10

10:                                               ; preds = %10, %2
  store i64 4294967313, ptr %6, align 8
  store i32 0, ptr %.sroa.22.0..sroa_idx.i.i, align 8
  %11 = load ptr, ptr %7, align 8
  tail call void @_ZN9context_t9switch_toEv(ptr noundef nonnull align 8 dereferenceable(32) %11)
  %12 = load i32, ptr %9, align 8
  %13 = and i32 %12, 131072
  %14 = icmp eq i32 %13, 0
  br i1 %14, label %10, label %15, !llvm.loop !7

15:                                               ; preds = %10
  %16 = or disjoint i32 %4, 1
  store i64 8589934608, ptr %6, align 8
  store i32 %16, ptr %.sroa.22.0..sroa_idx.i.i, align 8
  %17 = load ptr, ptr %7, align 8
  tail call void @_ZN9context_t9switch_toEv(ptr noundef nonnull align 8 dereferenceable(32) %17)
  store i64 4294967313, ptr %6, align 8
  store i32 0, ptr %.sroa.22.0..sroa_idx.i.i, align 8
  %18 = load ptr, ptr %7, align 8
  tail call void @_ZN9context_t9switch_toEv(ptr noundef nonnull align 8 dereferenceable(32) %18)
  %19 = getelementptr inbounds i8, ptr %0, i64 924
  store i32 %1, ptr %19, align 4
  %20 = getelementptr inbounds i8, ptr %0, i64 892
  %21 = load i8, ptr %20, align 4
  %22 = and i8 %21, 1
  %.not = icmp eq i8 %22, 0
  br i1 %.not, label %26, label %23

23:                                               ; preds = %15
  store i64 8589934608, ptr %6, align 8
  store i32 1, ptr %.sroa.22.0..sroa_idx.i.i, align 8
  %24 = load ptr, ptr %7, align 8
  tail call void @_ZN9context_t9switch_toEv(ptr noundef nonnull align 8 dereferenceable(32) %24)
  store i64 4294967313, ptr %6, align 8
  store i32 0, ptr %.sroa.22.0..sroa_idx.i.i, align 8
  %25 = load ptr, ptr %7, align 8
  tail call void @_ZN9context_t9switch_toEv(ptr noundef nonnull align 8 dereferenceable(32) %25)
  br label %26

26:                                               ; preds = %23, %15
  ret void
}